target datalayout = "e-m:e-p270:32:32-p271:32:32-p272:64:64-i64:64-i128:128-f80:128-n8:16:32:64-S128"
target triple = "x86_64-pc-linux-gnu"

; Function Attrs: nounwind uwtable
define hidden i32 @IPv4_supported() #0 {
  %1 = alloca i32, align 4
  %2 = alloca i32, align 4
  %3 = call i32 @socket(i32 noundef 2, i32 noundef 1, i32 noundef 0) #9
  store i32 %3, ptr %2, align 4
  %4 = load i32, ptr %2, align 4
  %5 = icmp slt i32 %4, 0
  br i1 %5, label %6, label %7

6:                                                ; preds = %0
  store i32 0, ptr %1, align 4
  br label %10

7:                                                ; preds = %0
  %8 = load i32, ptr %2, align 4
  %9 = call i32 @close(i32 noundef %8)
  store i32 1, ptr %1, align 4
  br label %10

10:                                               ; preds = %7, %6
  %11 = load i32, ptr %1, align 4
  ret i32 %11
}