; Function Attrs: nounwind uwtable
define hidden range(i32 0, 2) i32 @IPv4_supported() local_unnamed_addr #0 {
  %1 = tail call i32 @socket(i32 noundef 2, i32 noundef 1, i32 noundef 0) #13
  %2 = icmp slt i32 %1, 0
  br i1 %2, label %5, label %3

3:                                                ; preds = %0
  %4 = tail call i32 @close(i32 noundef %1) #13
  br label %5

5:                                                ; preds = %0, %3
  %.0 = phi i32 [ 1, %3 ], [ 0, %0 ]
  ret i32 %.0
}